target datalayout = "e-m:e-p270:32:32-p271:32:32-p272:64:64-i64:64-i128:128-f80:128-n8:16:32:64-S128"
target triple = "x86_64-pc-linux-gnu"

%struct.Agobj_s = type { %struct.Agtag_s, ptr }
%struct.Agtag_s = type { i32, i64 }
%struct.Agrec_s = type { ptr, ptr }
%struct.Agedge_s = type { %struct.Agobj_s, %struct.dtlink_s_, %struct.dtlink_s_, ptr }
%struct.dtlink_s_ = type { ptr, %union.anon }
%union.anon = type { ptr }

; Function Attrs: nounwind uwtable
define internal void @set_data(ptr noundef %0, ptr noundef %1, i1 noundef zeroext %2) #0 {
  %4 = alloca ptr, align 8
  %5 = alloca ptr, align 8
  %6 = alloca i8, align 1
  %7 = alloca ptr, align 8
  store ptr %0, ptr %4, align 8, !tbaa !11
  store ptr %1, ptr %5, align 8, !tbaa !18
  %8 = zext i1 %2 to i8
  store i8 %8, ptr %6, align 1, !tbaa !24
  call void @llvm.lifetime.start.p0(i64 8, ptr %7) #10
  %9 = load ptr, ptr %5, align 8, !tbaa !18
  %10 = load ptr, ptr %4, align 8, !tbaa !11
  %11 = getelementptr inbounds nuw %struct.Agobj_s, ptr %10, i32 0, i32 1
  store ptr %9, ptr %11, align 8, !tbaa !13
  %12 = load i8, ptr %6, align 1, !tbaa !24, !range !26, !noundef !27
  %13 = trunc i8 %12 to i1
  %14 = zext i1 %13 to i32
  %15 = load ptr, ptr %4, align 8, !tbaa !11
  %16 = getelementptr inbounds nuw %struct.Agobj_s, ptr %15, i32 0, i32 0
  %17 = load i32, ptr %16, align 8
  %18 = and i32 %14, 1
  %19 = shl i32 %18, 2
  %20 = and i32 %17, -5
  %21 = or i32 %20, %19
  store i32 %21, ptr %16, align 8
  %22 = load ptr, ptr %4, align 8, !tbaa !11
  %23 = getelementptr inbounds nuw %struct.Agobj_s, ptr %22, i32 0, i32 0
  %24 = load i32, ptr %23, align 8
  %25 = and i32 %24, 3
  %26 = icmp eq i32 %25, 3
  br i1 %26, label %33, label %27

27:                                               ; preds = %3
  %28 = load ptr, ptr %4, align 8, !tbaa !11
  %29 = getelementptr inbounds nuw %struct.Agobj_s, ptr %28, i32 0, i32 0
  %30 = load i32, ptr %29, align 8
  %31 = and i32 %30, 3
  %32 = icmp eq i32 %31, 2
  br i1 %32, label %33, label %61

33:                                               ; preds = %27, %3
  %34 = load ptr, ptr %4, align 8, !tbaa !11
  %35 = getelementptr inbounds nuw %struct.Agobj_s, ptr %34, i32 0, i32 0
  %36 = load i32, ptr %35, align 8
  %37 = and i32 %36, 3
  %38 = icmp eq i32 %37, 3
  br i1 %38, label %39, label %42

39:                                               ; preds = %33
  %40 = load ptr, ptr %4, align 8, !tbaa !11
  %41 = getelementptr inbounds %struct.Agedge_s, ptr %40, i64 -1
  br label %45

42:                                               ; preds = %33
  %43 = load ptr, ptr %4, align 8, !tbaa !11
  %44 = getelementptr inbounds %struct.Agedge_s, ptr %43, i64 1
  br label %45

45:                                               ; preds = %42, %39
  %46 = phi ptr [ %41, %39 ], [ %44, %42 ]
  store ptr %46, ptr %7, align 8, !tbaa !28
  %47 = load ptr, ptr %5, align 8, !tbaa !18
  %48 = load ptr, ptr %7, align 8, !tbaa !28
  %49 = getelementptr inbounds nuw %struct.Agobj_s, ptr %48, i32 0, i32 1
  store ptr %47, ptr %49, align 8, !tbaa !13
  %50 = load i8, ptr %6, align 1, !tbaa !24, !range !26, !noundef !27
  %51 = trunc i8 %50 to i1
  %52 = zext i1 %51 to i32
  %53 = load ptr, ptr %7, align 8, !tbaa !28
  %54 = getelementptr inbounds nuw %struct.Agedge_s, ptr %53, i32 0, i32 0
  %55 = getelementptr inbounds nuw %struct.Agobj_s, ptr %54, i32 0, i32 0
  %56 = load i32, ptr %55, align 8
  %57 = and i32 %52, 1
  %58 = shl i32 %57, 2
  %59 = and i32 %56, -5
  %60 = or i32 %59, %58
  store i32 %60, ptr %55, align 8
  br label %61

61:                                               ; preds = %45, %27
  call void @llvm.lifetime.end.p0(i64 8, ptr %7) #10
  ret void
}

; Function Attrs: nounwind uwtable
define internal void @objdelrec(ptr noundef %0, ptr noundef %1, ptr noundef %2) #0 {
  %4 = alloca ptr, align 8
  %5 = alloca ptr, align 8
  %6 = alloca ptr, align 8
  %7 = alloca ptr, align 8
  %8 = alloca ptr, align 8
  store ptr %0, ptr %4, align 8, !tbaa !30
  store ptr %1, ptr %5, align 8, !tbaa !11
  store ptr %2, ptr %6, align 8, !tbaa !3
  call void @llvm.lifetime.start.p0(i64 8, ptr %7) #10
  %9 = load ptr, ptr %6, align 8, !tbaa !3
  store ptr %9, ptr %7, align 8, !tbaa !18
  call void @llvm.lifetime.start.p0(i64 8, ptr %8) #10
  %10 = load ptr, ptr %5, align 8, !tbaa !11
  %11 = getelementptr inbounds nuw %struct.Agobj_s, ptr %10, i32 0, i32 1
  %12 = load ptr, ptr %11, align 8, !tbaa !13
  %13 = load ptr, ptr %7, align 8, !tbaa !18
  %14 = icmp eq ptr %12, %13
  br i1 %14, label %15, label %29

15:                                               ; preds = %3
  %16 = load ptr, ptr %7, align 8, !tbaa !18
  %17 = getelementptr inbounds nuw %struct.Agrec_s, ptr %16, i32 0, i32 1
  %18 = load ptr, ptr %17, align 8, !tbaa !21
  %19 = load ptr, ptr %7, align 8, !tbaa !18
  %20 = icmp eq ptr %18, %19
  br i1 %20, label %21, label %22

21:                                               ; preds = %15
  store ptr null, ptr %8, align 8, !tbaa !18
  br label %26

22:                                               ; preds = %15
  %23 = load ptr, ptr %7, align 8, !tbaa !18
  %24 = getelementptr inbounds nuw %struct.Agrec_s, ptr %23, i32 0, i32 1
  %25 = load ptr, ptr %24, align 8, !tbaa !21
  store ptr %25, ptr %8, align 8, !tbaa !18
  br label %26

26:                                               ; preds = %22, %21
  %27 = load ptr, ptr %5, align 8, !tbaa !11
  %28 = load ptr, ptr %8, align 8, !tbaa !18
  call void @set_data(ptr noundef %27, ptr noundef %28, i1 noundef zeroext false)
  br label %29

29:                                               ; preds = %26, %3
  call void @llvm.lifetime.end.p0(i64 8, ptr %8) #10
  call void @llvm.lifetime.end.p0(i64 8, ptr %7) #10
  ret void
}