; Function Attrs: mustprogress nofree norecurse nosync nounwind willreturn memory(argmem: readwrite) uwtable
define internal void @objdelrec(ptr readnone captures(none) %0, ptr noundef captures(none) %1, ptr noundef readonly captures(address) %2) #2 {
  %4 = getelementptr inbounds nuw i8, ptr %1, i64 16
  %5 = load ptr, ptr %4, align 8, !tbaa !3
  %6 = icmp eq ptr %5, %2
  br i1 %6, label %7, label %set_data.exit

7:                                                ; preds = %3
  %8 = getelementptr inbounds nuw i8, ptr %2, i64 8
  %9 = load ptr, ptr %8, align 8, !tbaa !15
  %10 = icmp eq ptr %9, %2
  %. = select i1 %10, ptr null, ptr %9
  store ptr %., ptr %4, align 8, !tbaa !3
  %11 = load i32, ptr %1, align 8
  %12 = and i32 %11, -5
  store i32 %12, ptr %1, align 8
  %13 = and i32 %11, 2
  %switch.not.i = icmp eq i32 %13, 0
  br i1 %switch.not.i, label %set_data.exit, label %14

14:                                               ; preds = %7
  %15 = and i32 %11, 3
  %16 = icmp eq i32 %15, 3
  %.v.i = select i1 %16, i64 -64, i64 64
  %17 = getelementptr inbounds i8, ptr %1, i64 %.v.i
  %18 = getelementptr inbounds nuw i8, ptr %17, i64 16
  store ptr %., ptr %18, align 8, !tbaa !3
  %19 = load i32, ptr %17, align 8
  %20 = and i32 %19, -5
  store i32 %20, ptr %17, align 8
  br label %set_data.exit

set_data.exit:                                    ; preds = %14, %7, %3
  ret void
}